; ModuleID = '12/944.c'
source_filename = "12/944.c"
target datalayout = "e-m:e-p270:32:32-p271:32:32-p272:64:64-i64:64-f80:128-n8:16:32:64-S128"
target triple = "x86_64-pc-linux-gnu"

@.str = private unnamed_addr constant [3 x i8] c"%d\00", align 1
@.str.1 = private unnamed_addr constant [4 x i8] c"%d\0A\00", align 1

; Function Attrs: noinline nounwind uwtable
define dso_local i32 @main() #0 {
  %1 = alloca i32, align 4
  %2 = alloca i32, align 4
  %3 = alloca i32, align 4
  %4 = alloca i32, align 4
  %5 = alloca i32, align 4
  %6 = alloca i32, align 4
  %7 = alloca [16 x i32], align 16
  store i32 0, i32* %1, align 4
  br label %8

8:                                                ; preds = %0, %87
  store i32 0, i32* %6, align 4
  store i32 0, i32* %2, align 4
  br label %9

9:                                                ; preds = %30, %8
  %10 = load i32, i32* %2, align 4
  %11 = icmp slt i32 %10, 16
  br i1 %11, label %12, label %33

12:                                               ; preds = %9
  %13 = load i32, i32* %2, align 4
  %14 = sext i32 %13 to i64
  %15 = getelementptr inbounds [16 x i32], [16 x i32]* %7, i64 0, i64 %14
  %16 = call i32 (i8*, ...) @__isoc99_scanf(i8* getelementptr inbounds ([3 x i8], [3 x i8]* @.str, i64 0, i64 0), i32* %15)
  %17 = load i32, i32* %2, align 4
  %18 = sext i32 %17 to i64
  %19 = getelementptr inbounds [16 x i32], [16 x i32]* %7, i64 0, i64 %18
  %20 = load i32, i32* %19, align 4
  %21 = icmp eq i32 %20, 0
  br i1 %21, label %28, label %22

22:                                               ; preds = %12
  %23 = load i32, i32* %2, align 4
  %24 = sext i32 %23 to i64
  %25 = getelementptr inbounds [16 x i32], [16 x i32]* %7, i64 0, i64 %24
  %26 = load i32, i32* %25, align 4
  %27 = icmp eq i32 %26, -1
  br i1 %27, label %28, label %29

28:                                               ; preds = %22, %12
  br label %33

29:                                               ; preds = %22
  br label %30

30:                                               ; preds = %29
  %31 = load i32, i32* %2, align 4
  %32 = add nsw i32 %31, 1
  store i32 %32, i32* %2, align 4
  br label %9

33:                                               ; preds = %28, %9
  %34 = load i32, i32* %2, align 4
  %35 = sext i32 %34 to i64
  %36 = getelementptr inbounds [16 x i32], [16 x i32]* %7, i64 0, i64 %35
  %37 = load i32, i32* %36, align 4
  %38 = icmp eq i32 %37, -1
  br i1 %38, label %39, label %40

39:                                               ; preds = %33
  br label %90

40:                                               ; preds = %33
  store i32 0, i32* %4, align 4
  br label %41

41:                                               ; preds = %84, %40
  %42 = load i32, i32* %4, align 4
  %43 = load i32, i32* %2, align 4
  %44 = sub nsw i32 %43, 2
  %45 = icmp sle i32 %42, %44
  br i1 %45, label %46, label %87

46:                                               ; preds = %41
  %47 = load i32, i32* %4, align 4
  %48 = add nsw i32 %47, 1
  store i32 %48, i32* %5, align 4
  br label %49

49:                                               ; preds = %80, %46
  %50 = load i32, i32* %5, align 4
  %51 = load i32, i32* %2, align 4
  %52 = sub nsw i32 %51, 1
  %53 = icmp sle i32 %50, %52
  br i1 %53, label %54, label %83

54:                                               ; preds = %49
  %55 = load i32, i32* %4, align 4
  %56 = sext i32 %55 to i64
  %57 = getelementptr inbounds [16 x i32], [16 x i32]* %7, i64 0, i64 %56
  %58 = load i32, i32* %57, align 4
  %59 = load i32, i32* %5, align 4
  %60 = sext i32 %59 to i64
  %61 = getelementptr inbounds [16 x i32], [16 x i32]* %7, i64 0, i64 %60
  %62 = load i32, i32* %61, align 4
  %63 = mul nsw i32 2, %62
  %64 = icmp eq i32 %58, %63
  br i1 %64, label %76, label %65

65:                                               ; preds = %54
  %66 = load i32, i32* %5, align 4
  %67 = sext i32 %66 to i64
  %68 = getelementptr inbounds [16 x i32], [16 x i32]* %7, i64 0, i64 %67
  %69 = load i32, i32* %68, align 4
  %70 = load i32, i32* %4, align 4
  %71 = sext i32 %70 to i64
  %72 = getelementptr inbounds [16 x i32], [16 x i32]* %7, i64 0, i64 %71
  %73 = load i32, i32* %72, align 4
  %74 = mul nsw i32 2, %73
  %75 = icmp eq i32 %69, %74
  br i1 %75, label %76, label %79

76:                                               ; preds = %65, %54
  %77 = load i32, i32* %6, align 4
  %78 = add nsw i32 %77, 1
  store i32 %78, i32* %6, align 4
  br label %79

79:                                               ; preds = %76, %65
  br label %80

80:                                               ; preds = %79
  %81 = load i32, i32* %5, align 4
  %82 = add nsw i32 %81, 1
  store i32 %82, i32* %5, align 4
  br label %49

83:                                               ; preds = %49
  br label %84

84:                                               ; preds = %83
  %85 = load i32, i32* %4, align 4
  %86 = add nsw i32 %85, 1
  store i32 %86, i32* %4, align 4
  br label %41

87:                                               ; preds = %41
  %88 = load i32, i32* %6, align 4
  %89 = call i32 (i8*, ...) @printf(i8* getelementptr inbounds ([4 x i8], [4 x i8]* @.str.1, i64 0, i64 0), i32 %88)
  br label %8

90:                                               ; preds = %39
  ret i32 0
}

declare dso_local i32 @__isoc99_scanf(i8*, ...) #1

declare dso_local i32 @printf(i8*, ...) #1


!llvm.module.flags = !{!0}
!llvm.ident = !{!1}

!0 = !{i32 1, !"wchar_size", i32 4}
!1 = !{!"clang version 10.0.0-4ubuntu1 "}
